; Function Attrs: mustprogress uwtable
define dso_local void @_ZNK5cmELF20EncodeDynamicEntriesERKSt6vectorISt4pairIlmESaIS2_EE(ptr dead_on_unwind noalias writable sret(%"class.std::vector.41") align 8 %0, ptr nocapture noundef nonnull readonly align 8 dereferenceable(40) %1, ptr noundef nonnull align 8 dereferenceable(24) %2) local_unnamed_addr #0 align 2 {
  %4 = load ptr, ptr %1, align 8
  %.not.i = icmp eq ptr %4, null
  br i1 %.not.i, label %_ZNK5cmELF5ValidEv.exit.thread, label %_ZNK5cmELF5ValidEv.exit

_ZNK5cmELF5ValidEv.exit:                          ; preds = %3
  %5 = getelementptr inbounds i8, ptr %4, i64 28
  %6 = load i32, ptr %5, align 4
  %.not = icmp eq i32 %6, 0
  br i1 %.not, label %_ZNK5cmELF5ValidEv.exit.thread, label %7

7:                                                ; preds = %_ZNK5cmELF5ValidEv.exit
  %8 = load ptr, ptr %4, align 8
  %9 = getelementptr inbounds i8, ptr %8, i64 40
  %10 = load ptr, ptr %9, align 8
  tail call void %10(ptr dead_on_unwind writable sret(%"class.std::vector.41") align 8 %0, ptr noundef nonnull align 8 dereferenceable(88) %4, ptr noundef nonnull align 8 dereferenceable(24) %2)
  br label %11

_ZNK5cmELF5ValidEv.exit.thread:                   ; preds = %3, %_ZNK5cmELF5ValidEv.exit
  tail call void @llvm.memset.p0.i64(ptr noundef nonnull align 8 dereferenceable(24) %0, i8 0, i64 24, i1 false)
  tail call void @_ZNSaIcEC2Ev(ptr noundef nonnull align 1 dereferenceable(1) %0) #17
  tail call void @llvm.memset.p0.i64(ptr noundef nonnull align 8 dereferenceable(24) %0, i8 0, i64 24, i1 false)
  br label %11

11:                                               ; preds = %_ZNK5cmELF5ValidEv.exit.thread, %7
  ret void
}